; Function Attrs: mustprogress nounwind uwtable
define hidden void @_ZN13SafePointNode20disconnect_from_rootEP12PhaseIterGVN(ptr noundef nonnull readnone align 8 dereferenceable(81) %0, ptr nocapture noundef readonly %1) local_unnamed_addr #2 align 2 {
  %3 = getelementptr inbounds i8, ptr %1, i64 16
  %4 = load ptr, ptr %3, align 8
  %5 = getelementptr inbounds i8, ptr %4, i64 736
  %6 = load ptr, ptr %5, align 8
  %7 = getelementptr inbounds i8, ptr %6, i64 24
  %8 = load i32, ptr %7, align 8
  %9 = getelementptr inbounds i8, ptr %6, i64 28
  %10 = load i32, ptr %9, align 4
  %11 = icmp ult i32 %8, %10
  br i1 %11, label %.lr.ph.i, label %_ZN4Node14find_prec_edgeEPS_.exit.thread

.lr.ph.i:                                         ; preds = %2
  %12 = getelementptr inbounds i8, ptr %6, i64 8
  %13 = load ptr, ptr %12, align 8
  %14 = zext i32 %8 to i64
  %15 = zext i32 %10 to i64
  br label %16

16:                                               ; preds = %20, %.lr.ph.i
  %indvars.iv.i = phi i64 [ %indvars.iv.next.i, %20 ], [ %14, %.lr.ph.i ]
  %17 = getelementptr inbounds ptr, ptr %13, i64 %indvars.iv.i
  %18 = load ptr, ptr %17, align 8
  %19 = icmp eq ptr %18, %0
  br i1 %19, label %_ZN4Node14find_prec_edgeEPS_.exit, label %20

20:                                               ; preds = %16
  %21 = icmp ne ptr %18, null
  %indvars.iv.next.i = add nuw nsw i64 %indvars.iv.i, 1
  %22 = icmp ult i64 %indvars.iv.next.i, %15
  %or.cond.i = select i1 %21, i1 %22, i1 false
  br i1 %or.cond.i, label %16, label %_ZN4Node14find_prec_edgeEPS_.exit.thread, !llvm.loop !26

_ZN4Node14find_prec_edgeEPS_.exit:                ; preds = %16
  %23 = trunc nuw i64 %indvars.iv.i to i32
  %.not = icmp eq i64 %indvars.iv.i, 4294967295
  br i1 %.not, label %_ZN4Node14find_prec_edgeEPS_.exit.thread, label %24

24:                                               ; preds = %_ZN4Node14find_prec_edgeEPS_.exit
  %25 = getelementptr inbounds i8, ptr %1, i64 32
  %26 = load ptr, ptr %25, align 8
  %27 = tail call noundef zeroext i1 @_ZN8NodeHash11hash_deleteEPK4Node(ptr noundef nonnull align 8 dereferenceable(40) %26, ptr noundef %6) #15
  %28 = getelementptr inbounds i8, ptr %1, i64 2408
  %29 = load ptr, ptr %28, align 8
  %30 = getelementptr inbounds i8, ptr %29, i64 32
  %31 = getelementptr inbounds i8, ptr %6, i64 40
  %32 = load i32, ptr %31, align 8
  %33 = lshr i32 %32, 5
  %34 = load i32, ptr %30, align 8
  %.not.i.i.i.i = icmp ult i32 %33, %34
  br i1 %.not.i.i.i.i, label %_ZN9VectorSet8test_setEj.exit.i.i.i, label %35

35:                                               ; preds = %24
  tail call void @_ZN9VectorSet4growEj(ptr noundef nonnull align 8 dereferenceable(32) %30, i32 noundef %33) #15
  br label %_ZN9VectorSet8test_setEj.exit.i.i.i

_ZN9VectorSet8test_setEj.exit.i.i.i:              ; preds = %35, %24
  %36 = and i32 %32, 31
  %37 = shl nuw i32 1, %36
  %38 = getelementptr inbounds i8, ptr %29, i64 40
  %39 = load ptr, ptr %38, align 8
  %40 = zext nneg i32 %33 to i64
  %41 = getelementptr inbounds i32, ptr %39, i64 %40
  %42 = load i32, ptr %41, align 4
  %43 = or i32 %42, %37
  store i32 %43, ptr %41, align 4
  %44 = and i32 %42, %37
  %.not.i.i.i = icmp eq i32 %44, 0
  br i1 %.not.i.i.i, label %45, label %_ZN12PhaseIterGVN20delete_precedence_ofEP4Nodej.exit

45:                                               ; preds = %_ZN9VectorSet8test_setEj.exit.i.i.i
  %46 = getelementptr inbounds i8, ptr %29, i64 24
  %47 = load i32, ptr %46, align 8
  %48 = add i32 %47, 1
  store i32 %48, ptr %46, align 8
  %49 = getelementptr inbounds i8, ptr %29, i64 8
  %50 = load i32, ptr %49, align 8
  %.not.i.i.i.i.i = icmp ugt i32 %50, %47
  br i1 %.not.i.i.i.i.i, label %_ZN9Node_List4pushEP4Node.exit.i.i.i, label %51

51:                                               ; preds = %45
  tail call void @_ZN10Node_Array4growEj(ptr noundef nonnull align 8 dereferenceable(24) %29, i32 noundef %47) #15
  br label %_ZN9Node_List4pushEP4Node.exit.i.i.i

_ZN9Node_List4pushEP4Node.exit.i.i.i:             ; preds = %51, %45
  %52 = getelementptr inbounds i8, ptr %29, i64 16
  %53 = load ptr, ptr %52, align 8
  %54 = zext i32 %47 to i64
  %55 = getelementptr inbounds ptr, ptr %53, i64 %54
  store ptr %6, ptr %55, align 8
  br label %_ZN12PhaseIterGVN20delete_precedence_ofEP4Nodej.exit

_ZN12PhaseIterGVN20delete_precedence_ofEP4Nodej.exit: ; preds = %_ZN9VectorSet8test_setEj.exit.i.i.i, %_ZN9Node_List4pushEP4Node.exit.i.i.i
  tail call void @_ZN4Node7rm_precEj(ptr noundef nonnull align 8 dereferenceable(52) %6, i32 noundef %23) #15
  br label %_ZN4Node14find_prec_edgeEPS_.exit.thread

_ZN4Node14find_prec_edgeEPS_.exit.thread:         ; preds = %20, %2, %_ZN12PhaseIterGVN20delete_precedence_ofEP4Nodej.exit, %_ZN4Node14find_prec_edgeEPS_.exit
  ret void
}